; Function Attrs: nounwind uwtable
define ptr @l_Array_foldlMUnsafe_fold___at_Lean_Compiler_LCNF_Simp_FunDeclInfoMap_update_go___spec__1___boxed(ptr noundef %0, ptr noundef %1, ptr noundef %2, ptr noundef %3, ptr noundef %4, ptr noundef %5, ptr noundef %6, ptr noundef %7, ptr noundef %8, ptr noundef %9, ptr noundef %10) local_unnamed_addr #1 {
  %12 = ptrtoint ptr %0 to i64
  %13 = lshr i64 %12, 1
  %14 = trunc i64 %13 to i8
  %15 = and i64 %12, 1
  %.not = icmp eq i64 %15, 0
  br i1 %.not, label %16, label %lean_dec.exit30

16:                                               ; preds = %11
  %17 = load i32, ptr %0, align 4, !tbaa !4
  %18 = icmp sgt i32 %17, 1
  br i1 %18, label %19, label %21, !prof !9

19:                                               ; preds = %16
  %20 = add nsw i32 %17, -1
  store i32 %20, ptr %0, align 4, !tbaa !4
  br label %lean_dec.exit30

21:                                               ; preds = %16
  %.not.i = icmp eq i32 %17, 0
  br i1 %.not.i, label %lean_dec.exit30, label %22

22:                                               ; preds = %21
  tail call void @lean_dec_ref_cold(ptr noundef nonnull %0) #6
  br label %lean_dec.exit30

lean_dec.exit30:                                  ; preds = %22, %21, %19, %11
  %23 = getelementptr i8, ptr %2, i64 8
  %.val47 = load i64, ptr %23, align 8, !tbaa !16
  %24 = ptrtoint ptr %2 to i64
  %25 = and i64 %24, 1
  %.not48 = icmp eq i64 %25, 0
  br i1 %.not48, label %26, label %lean_dec.exit29

26:                                               ; preds = %lean_dec.exit30
  %27 = load i32, ptr %2, align 4, !tbaa !4
  %28 = icmp sgt i32 %27, 1
  br i1 %28, label %29, label %31, !prof !9

29:                                               ; preds = %26
  %30 = add nsw i32 %27, -1
  store i32 %30, ptr %2, align 4, !tbaa !4
  br label %lean_dec.exit29

31:                                               ; preds = %26
  %.not.i31 = icmp eq i32 %27, 0
  br i1 %.not.i31, label %lean_dec.exit29, label %32

32:                                               ; preds = %31
  tail call void @lean_dec_ref_cold(ptr noundef nonnull %2) #6
  br label %lean_dec.exit29

lean_dec.exit29:                                  ; preds = %32, %31, %29, %lean_dec.exit30
  %33 = getelementptr i8, ptr %3, i64 8
  %.val = load i64, ptr %33, align 8, !tbaa !16
  %34 = ptrtoint ptr %3 to i64
  %35 = and i64 %34, 1
  %.not49 = icmp eq i64 %35, 0
  br i1 %.not49, label %36, label %lean_dec.exit28

36:                                               ; preds = %lean_dec.exit29
  %37 = load i32, ptr %3, align 4, !tbaa !4
  %38 = icmp sgt i32 %37, 1
  br i1 %38, label %39, label %41, !prof !9

39:                                               ; preds = %36
  %40 = add nsw i32 %37, -1
  store i32 %40, ptr %3, align 4, !tbaa !4
  br label %lean_dec.exit28

41:                                               ; preds = %36
  %.not.i33 = icmp eq i32 %37, 0
  br i1 %.not.i33, label %lean_dec.exit28, label %42

42:                                               ; preds = %41
  tail call void @lean_dec_ref_cold(ptr noundef nonnull %3) #6
  br label %lean_dec.exit28

lean_dec.exit28:                                  ; preds = %42, %41, %39, %lean_dec.exit29
  %43 = tail call ptr @l_Array_foldlMUnsafe_fold___at_Lean_Compiler_LCNF_Simp_FunDeclInfoMap_update_go___spec__1(i8 noundef zeroext %14, ptr noundef %1, i64 noundef %.val47, i64 noundef %.val, ptr noundef %4, ptr noundef %5, ptr noundef %6, ptr noundef %7, ptr noundef %8, ptr noundef %9, ptr noundef %10)
  %44 = ptrtoint ptr %9 to i64
  %45 = and i64 %44, 1
  %.not50 = icmp eq i64 %45, 0
  br i1 %.not50, label %46, label %lean_dec.exit27

46:                                               ; preds = %lean_dec.exit28
  %47 = load i32, ptr %9, align 4, !tbaa !4
  %48 = icmp sgt i32 %47, 1
  br i1 %48, label %49, label %51, !prof !9

49:                                               ; preds = %46
  %50 = add nsw i32 %47, -1
  store i32 %50, ptr %9, align 4, !tbaa !4
  br label %lean_dec.exit27

51:                                               ; preds = %46
  %.not.i35 = icmp eq i32 %47, 0
  br i1 %.not.i35, label %lean_dec.exit27, label %52

52:                                               ; preds = %51
  tail call void @lean_dec_ref_cold(ptr noundef nonnull %9) #6
  br label %lean_dec.exit27

lean_dec.exit27:                                  ; preds = %52, %51, %49, %lean_dec.exit28
  %53 = ptrtoint ptr %8 to i64
  %54 = and i64 %53, 1
  %.not51 = icmp eq i64 %54, 0
  br i1 %.not51, label %55, label %lean_dec.exit26

55:                                               ; preds = %lean_dec.exit27
  %56 = load i32, ptr %8, align 4, !tbaa !4
  %57 = icmp sgt i32 %56, 1
  br i1 %57, label %58, label %60, !prof !9

58:                                               ; preds = %55
  %59 = add nsw i32 %56, -1
  store i32 %59, ptr %8, align 4, !tbaa !4
  br label %lean_dec.exit26

60:                                               ; preds = %55
  %.not.i37 = icmp eq i32 %56, 0
  br i1 %.not.i37, label %lean_dec.exit26, label %61

61:                                               ; preds = %60
  tail call void @lean_dec_ref_cold(ptr noundef nonnull %8) #6
  br label %lean_dec.exit26

lean_dec.exit26:                                  ; preds = %61, %60, %58, %lean_dec.exit27
  %62 = ptrtoint ptr %7 to i64
  %63 = and i64 %62, 1
  %.not52 = icmp eq i64 %63, 0
  br i1 %.not52, label %64, label %lean_dec.exit25

64:                                               ; preds = %lean_dec.exit26
  %65 = load i32, ptr %7, align 4, !tbaa !4
  %66 = icmp sgt i32 %65, 1
  br i1 %66, label %67, label %69, !prof !9

67:                                               ; preds = %64
  %68 = add nsw i32 %65, -1
  store i32 %68, ptr %7, align 4, !tbaa !4
  br label %lean_dec.exit25

69:                                               ; preds = %64
  %.not.i39 = icmp eq i32 %65, 0
  br i1 %.not.i39, label %lean_dec.exit25, label %70

70:                                               ; preds = %69
  tail call void @lean_dec_ref_cold(ptr noundef nonnull %7) #6
  br label %lean_dec.exit25

lean_dec.exit25:                                  ; preds = %70, %69, %67, %lean_dec.exit26
  %71 = ptrtoint ptr %6 to i64
  %72 = and i64 %71, 1
  %.not53 = icmp eq i64 %72, 0
  br i1 %.not53, label %73, label %lean_dec.exit24

73:                                               ; preds = %lean_dec.exit25
  %74 = load i32, ptr %6, align 4, !tbaa !4
  %75 = icmp sgt i32 %74, 1
  br i1 %75, label %76, label %78, !prof !9

76:                                               ; preds = %73
  %77 = add nsw i32 %74, -1
  store i32 %77, ptr %6, align 4, !tbaa !4
  br label %lean_dec.exit24

78:                                               ; preds = %73
  %.not.i41 = icmp eq i32 %74, 0
  br i1 %.not.i41, label %lean_dec.exit24, label %79

79:                                               ; preds = %78
  tail call void @lean_dec_ref_cold(ptr noundef nonnull %6) #6
  br label %lean_dec.exit24

lean_dec.exit24:                                  ; preds = %79, %78, %76, %lean_dec.exit25
  %80 = ptrtoint ptr %5 to i64
  %81 = and i64 %80, 1
  %.not54 = icmp eq i64 %81, 0
  br i1 %.not54, label %82, label %lean_dec.exit23

82:                                               ; preds = %lean_dec.exit24
  %83 = load i32, ptr %5, align 4, !tbaa !4
  %84 = icmp sgt i32 %83, 1
  br i1 %84, label %85, label %87, !prof !9

85:                                               ; preds = %82
  %86 = add nsw i32 %83, -1
  store i32 %86, ptr %5, align 4, !tbaa !4
  br label %lean_dec.exit23

87:                                               ; preds = %82
  %.not.i43 = icmp eq i32 %83, 0
  br i1 %.not.i43, label %lean_dec.exit23, label %88

88:                                               ; preds = %87
  tail call void @lean_dec_ref_cold(ptr noundef nonnull %5) #6
  br label %lean_dec.exit23

lean_dec.exit23:                                  ; preds = %88, %87, %85, %lean_dec.exit24
  %89 = ptrtoint ptr %1 to i64
  %90 = and i64 %89, 1
  %.not55 = icmp eq i64 %90, 0
  br i1 %.not55, label %91, label %lean_dec.exit

91:                                               ; preds = %lean_dec.exit23
  %92 = load i32, ptr %1, align 4, !tbaa !4
  %93 = icmp sgt i32 %92, 1
  br i1 %93, label %94, label %96, !prof !9

94:                                               ; preds = %91
  %95 = add nsw i32 %92, -1
  store i32 %95, ptr %1, align 4, !tbaa !4
  br label %lean_dec.exit

96:                                               ; preds = %91
  %.not.i45 = icmp eq i32 %92, 0
  br i1 %.not.i45, label %lean_dec.exit, label %97

97:                                               ; preds = %96
  tail call void @lean_dec_ref_cold(ptr noundef nonnull %1) #6
  br label %lean_dec.exit

lean_dec.exit:                                    ; preds = %97, %96, %94, %lean_dec.exit23
  ret ptr %43
}